target datalayout = "e-m:e-p270:32:32-p271:32:32-p272:64:64-i64:64-i128:128-f80:128-n8:16:32:64-S128"
target triple = "x86_64-pc-linux-gnu"

%"class.pxrInternal_v0_24__pxrReserved__::TfPatternMatcher" = type { i8, i8, %"class.std::__cxx11::basic_string", i8, %"class.pxrInternal_v0_24__pxrReserved__::ArchRegex" }
%"class.std::__cxx11::basic_string" = type { %"struct.std::__cxx11::basic_string<char>::_Alloc_hider", i64, %union.anon }
%"struct.std::__cxx11::basic_string<char>::_Alloc_hider" = type { ptr }
%union.anon = type { i64, [8 x i8] }
%"class.pxrInternal_v0_24__pxrReserved__::ArchRegex" = type { i32, %"class.std::__cxx11::basic_string", %"class.std::shared_ptr" }
%"class.std::shared_ptr" = type { %"class.std::__shared_ptr" }
%"class.std::__shared_ptr" = type { ptr, %"class.std::__shared_count" }
%"class.std::__shared_count" = type { ptr }

; Function Attrs: mustprogress nounwind uwtable
define void @_ZN32pxrInternal_v0_24__pxrReserved__16TfPatternMatcher16SetIsGlobPatternEb(ptr noundef nonnull align 8 dereferenceable(104) %0, i1 noundef zeroext %1) #0 align 2 {
  %3 = alloca ptr, align 8
  %4 = alloca i8, align 1
  store ptr %0, ptr %3, align 8
  %5 = zext i1 %1 to i8
  store i8 %5, ptr %4, align 1
  %6 = load ptr, ptr %3, align 8
  %7 = load i8, ptr %4, align 1
  %8 = trunc i8 %7 to i1
  %9 = zext i1 %8 to i32
  %10 = getelementptr inbounds nuw %"class.pxrInternal_v0_24__pxrReserved__::TfPatternMatcher", ptr %6, i32 0, i32 1
  %11 = load i8, ptr %10, align 1
  %12 = trunc i8 %11 to i1
  %13 = zext i1 %12 to i32
  %14 = icmp ne i32 %9, %13
  br i1 %14, label %15, label %21

15:                                               ; preds = %2
  %16 = getelementptr inbounds nuw %"class.pxrInternal_v0_24__pxrReserved__::TfPatternMatcher", ptr %6, i32 0, i32 3
  store i8 1, ptr %16, align 8
  %17 = load i8, ptr %4, align 1
  %18 = trunc i8 %17 to i1
  %19 = getelementptr inbounds nuw %"class.pxrInternal_v0_24__pxrReserved__::TfPatternMatcher", ptr %6, i32 0, i32 1
  %20 = zext i1 %18 to i8
  store i8 %20, ptr %19, align 1
  br label %21

21:                                               ; preds = %15, %2
  ret void
}