; Function Attrs: mustprogress nofree norecurse nosync nounwind willreturn memory(argmem: readwrite) uwtable
define void @_ZN32pxrInternal_v0_24__pxrReserved__16TfPatternMatcher16SetIsGlobPatternEb(ptr nocapture noundef nonnull align 8 dereferenceable(104) %0, i1 noundef zeroext %1) local_unnamed_addr #4 align 2 {
  %3 = getelementptr inbounds nuw i8, ptr %0, i64 1
  %4 = load i8, ptr %3, align 1
  %5 = trunc i8 %4 to i1
  %6 = xor i1 %1, %5
  br i1 %6, label %7, label %10

7:                                                ; preds = %2
  %8 = zext i1 %1 to i8
  %9 = getelementptr inbounds nuw i8, ptr %0, i64 40
  store i8 1, ptr %9, align 8
  store i8 %8, ptr %3, align 1
  br label %10

10:                                               ; preds = %7, %2
  ret void
}